target datalayout = "e-m:e-p270:32:32-p271:32:32-p272:64:64-i64:64-i128:128-f80:128-n8:16:32:64-S128"
target triple = "x86_64-pc-linux-gnu"

%struct.gmx_ana_selvalue_t = type { i32, i32, %union.anon, i32 }
%union.anon = type { ptr }
%struct.t_methoddata_same = type { %union.anon.0, i32, %union.anon.1, ptr, i8 }
%union.anon.0 = type { ptr }
%union.anon.1 = type { ptr }
%struct.gmx_ana_index_t = type { i32, ptr, i32 }

; Function Attrs: mustprogress uwtable
define internal void @_ZL17evaluate_same_strRKN3gmx20SelMethodEvalContextEP15gmx_ana_index_tP18gmx_ana_selvalue_tPv(ptr noundef nonnull align 8 dereferenceable(24) %0, ptr noundef %1, ptr noundef %2, ptr noundef %3) #0 {
  %5 = alloca ptr, align 8
  %6 = alloca ptr, align 8
  %7 = alloca ptr, align 8
  %8 = alloca ptr, align 8
  %9 = alloca ptr, align 8
  %10 = alloca i32, align 4
  %11 = alloca ptr, align 8
  %12 = alloca ptr, align 8
  %13 = alloca ptr, align 8
  store ptr %0, ptr %5, align 8
  store ptr %1, ptr %6, align 8
  store ptr %2, ptr %7, align 8
  store ptr %3, ptr %8, align 8
  %14 = load ptr, ptr %8, align 8
  store ptr %14, ptr %9, align 8
  %15 = load ptr, ptr %7, align 8
  %16 = getelementptr inbounds %struct.gmx_ana_selvalue_t, ptr %15, i32 0, i32 2
  %17 = load ptr, ptr %16, align 8
  %18 = getelementptr inbounds %struct.gmx_ana_index_t, ptr %17, i32 0, i32 0
  store i32 0, ptr %18, align 8
  store i32 0, ptr %10, align 4
  br label %19

19:                                               ; preds = %132, %4
  %20 = load i32, ptr %10, align 4
  %21 = load ptr, ptr %6, align 8
  %22 = getelementptr inbounds %struct.gmx_ana_index_t, ptr %21, i32 0, i32 0
  %23 = load i32, ptr %22, align 8
  %24 = icmp slt i32 %20, %23
  br i1 %24, label %25, label %133

25:                                               ; preds = %19
  store ptr null, ptr %11, align 8
  %26 = load ptr, ptr %9, align 8
  %27 = getelementptr inbounds %struct.t_methoddata_same, ptr %26, i32 0, i32 1
  %28 = load i32, ptr %27, align 8
  %29 = icmp sgt i32 %28, 0
  br i1 %29, label %30, label %45

30:                                               ; preds = %25
  %31 = load ptr, ptr %9, align 8
  %32 = getelementptr inbounds %struct.t_methoddata_same, ptr %31, i32 0, i32 0
  %33 = load ptr, ptr %32, align 8
  %34 = load i32, ptr %10, align 4
  %35 = sext i32 %34 to i64
  %36 = getelementptr inbounds ptr, ptr %33, i64 %35
  %37 = load ptr, ptr %9, align 8
  %38 = getelementptr inbounds %struct.t_methoddata_same, ptr %37, i32 0, i32 3
  %39 = load ptr, ptr %38, align 8
  %40 = load ptr, ptr %9, align 8
  %41 = getelementptr inbounds %struct.t_methoddata_same, ptr %40, i32 0, i32 1
  %42 = load i32, ptr %41, align 8
  %43 = sext i32 %42 to i64
  %44 = call ptr @bsearch(ptr noundef %36, ptr noundef %39, i64 noundef %43, i64 noundef 8, ptr noundef @_ZL7cmp_strPKvS0_)
  store ptr %44, ptr %11, align 8
  br label %45

45:                                               ; preds = %30, %25
  %46 = load ptr, ptr %11, align 8
  %47 = icmp eq ptr %46, null
  br i1 %47, label %48, label %81

48:                                               ; preds = %45
  %49 = load ptr, ptr %9, align 8
  %50 = getelementptr inbounds %struct.t_methoddata_same, ptr %49, i32 0, i32 0
  %51 = load ptr, ptr %50, align 8
  %52 = load i32, ptr %10, align 4
  %53 = sext i32 %52 to i64
  %54 = getelementptr inbounds ptr, ptr %51, i64 %53
  %55 = load ptr, ptr %54, align 8
  store ptr %55, ptr %12, align 8
  %56 = load i32, ptr %10, align 4
  %57 = add nsw i32 %56, 1
  store i32 %57, ptr %10, align 4
  br label %58

58:                                               ; preds = %77, %48
  %59 = load i32, ptr %10, align 4
  %60 = load ptr, ptr %6, align 8
  %61 = getelementptr inbounds %struct.gmx_ana_index_t, ptr %60, i32 0, i32 0
  %62 = load i32, ptr %61, align 8
  %63 = icmp slt i32 %59, %62
  br i1 %63, label %64, label %75

64:                                               ; preds = %58
  %65 = load ptr, ptr %9, align 8
  %66 = getelementptr inbounds %struct.t_methoddata_same, ptr %65, i32 0, i32 0
  %67 = load ptr, ptr %66, align 8
  %68 = load i32, ptr %10, align 4
  %69 = sext i32 %68 to i64
  %70 = getelementptr inbounds ptr, ptr %67, i64 %69
  %71 = load ptr, ptr %70, align 8
  %72 = load ptr, ptr %12, align 8
  %73 = call i32 @strcmp(ptr noundef %71, ptr noundef %72) #16
  %74 = icmp eq i32 %73, 0
  br label %75

75:                                               ; preds = %64, %58
  %76 = phi i1 [ false, %58 ], [ %74, %64 ]
  br i1 %76, label %77, label %80

77:                                               ; preds = %75
  %78 = load i32, ptr %10, align 4
  %79 = add nsw i32 %78, 1
  store i32 %79, ptr %10, align 4
  br label %58, !llvm.loop !16

80:                                               ; preds = %75
  br label %132

81:                                               ; preds = %45
  %82 = load ptr, ptr %9, align 8
  %83 = getelementptr inbounds %struct.t_methoddata_same, ptr %82, i32 0, i32 0
  %84 = load ptr, ptr %83, align 8
  %85 = load i32, ptr %10, align 4
  %86 = sext i32 %85 to i64
  %87 = getelementptr inbounds ptr, ptr %84, i64 %86
  %88 = load ptr, ptr %87, align 8
  store ptr %88, ptr %13, align 8
  br label %89

89:                                               ; preds = %108, %81
  %90 = load i32, ptr %10, align 4
  %91 = load ptr, ptr %6, align 8
  %92 = getelementptr inbounds %struct.gmx_ana_index_t, ptr %91, i32 0, i32 0
  %93 = load i32, ptr %92, align 8
  %94 = icmp slt i32 %90, %93
  br i1 %94, label %95, label %106

95:                                               ; preds = %89
  %96 = load ptr, ptr %9, align 8
  %97 = getelementptr inbounds %struct.t_methoddata_same, ptr %96, i32 0, i32 0
  %98 = load ptr, ptr %97, align 8
  %99 = load i32, ptr %10, align 4
  %100 = sext i32 %99 to i64
  %101 = getelementptr inbounds ptr, ptr %98, i64 %100
  %102 = load ptr, ptr %101, align 8
  %103 = load ptr, ptr %13, align 8
  %104 = call i32 @strcmp(ptr noundef %102, ptr noundef %103) #16
  %105 = icmp eq i32 %104, 0
  br label %106

106:                                              ; preds = %95, %89
  %107 = phi i1 [ false, %89 ], [ %105, %95 ]
  br i1 %107, label %108, label %131

108:                                              ; preds = %106
  %109 = load ptr, ptr %6, align 8
  %110 = getelementptr inbounds %struct.gmx_ana_index_t, ptr %109, i32 0, i32 1
  %111 = load ptr, ptr %110, align 8
  %112 = load i32, ptr %10, align 4
  %113 = sext i32 %112 to i64
  %114 = getelementptr inbounds i32, ptr %111, i64 %113
  %115 = load i32, ptr %114, align 4
  %116 = load ptr, ptr %7, align 8
  %117 = getelementptr inbounds %struct.gmx_ana_selvalue_t, ptr %116, i32 0, i32 2
  %118 = load ptr, ptr %117, align 8
  %119 = getelementptr inbounds %struct.gmx_ana_index_t, ptr %118, i32 0, i32 1
  %120 = load ptr, ptr %119, align 8
  %121 = load ptr, ptr %7, align 8
  %122 = getelementptr inbounds %struct.gmx_ana_selvalue_t, ptr %121, i32 0, i32 2
  %123 = load ptr, ptr %122, align 8
  %124 = getelementptr inbounds %struct.gmx_ana_index_t, ptr %123, i32 0, i32 0
  %125 = load i32, ptr %124, align 8
  %126 = add nsw i32 %125, 1
  store i32 %126, ptr %124, align 8
  %127 = sext i32 %125 to i64
  %128 = getelementptr inbounds i32, ptr %120, i64 %127
  store i32 %115, ptr %128, align 4
  %129 = load i32, ptr %10, align 4
  %130 = add nsw i32 %129, 1
  store i32 %130, ptr %10, align 4
  br label %89, !llvm.loop !17

131:                                              ; preds = %106
  br label %132

132:                                              ; preds = %131, %80
  br label %19, !llvm.loop !18

133:                                              ; preds = %19
  ret void
}