; Function Attrs: mustprogress uwtable
define internal void @_ZL17evaluate_same_strRKN3gmx20SelMethodEvalContextEP15gmx_ana_index_tP18gmx_ana_selvalue_tPv(ptr nocapture nonnull readnone align 8 %0, ptr nocapture noundef readonly %1, ptr nocapture noundef readonly %2, ptr nocapture noundef readonly %3) #0 {
  %5 = getelementptr inbounds i8, ptr %2, i64 8
  %6 = load ptr, ptr %5, align 8
  store i32 0, ptr %6, align 8
  %7 = load i32, ptr %1, align 8
  %8 = icmp sgt i32 %7, 0
  br i1 %8, label %.lr.ph40, label %._crit_edge

.lr.ph40:                                         ; preds = %4
  %9 = getelementptr inbounds i8, ptr %3, i64 8
  %10 = getelementptr inbounds i8, ptr %3, i64 24
  %11 = getelementptr inbounds i8, ptr %1, i64 8
  %12 = load i32, ptr %9, align 8
  %13 = icmp sgt i32 %12, 0
  br i1 %13, label %.lr.ph40.split, label %._crit_edge

.lr.ph40.splitthread-pre-split:                   ; preds = %.critedge
  %.pr = load i32, ptr %9, align 8
  br label %.lr.ph40.split

.lr.ph40.split:                                   ; preds = %.lr.ph40, %.lr.ph40.splitthread-pre-split
  %14 = phi i32 [ %.pr, %.lr.ph40.splitthread-pre-split ], [ %12, %.lr.ph40 ]
  %15 = phi i32 [ %65, %.lr.ph40.splitthread-pre-split ], [ %7, %.lr.ph40 ]
  %.039 = phi i32 [ %.3, %.lr.ph40.splitthread-pre-split ], [ 0, %.lr.ph40 ]
  %16 = icmp sgt i32 %14, 0
  %.pre = load ptr, ptr %3, align 8
  %17 = sext i32 %.039 to i64
  br i1 %16, label %18, label %.thread

18:                                               ; preds = %.lr.ph40.split
  %19 = getelementptr inbounds ptr, ptr %.pre, i64 %17
  %20 = load ptr, ptr %10, align 8
  %21 = zext nneg i32 %14 to i64
  %22 = tail call ptr @bsearch(ptr noundef %19, ptr noundef %20, i64 noundef %21, i64 noundef 8, ptr noundef nonnull @_ZL7cmp_strPKvS0_)
  %23 = icmp eq ptr %22, null
  %.pre49 = load ptr, ptr %3, align 8
  %.pre50 = load i32, ptr %1, align 8
  br i1 %23, label %.thread, label %36

.thread:                                          ; preds = %.lr.ph40.split, %18
  %24 = phi i32 [ %.pre50, %18 ], [ %15, %.lr.ph40.split ]
  %25 = phi ptr [ %.pre49, %18 ], [ %.pre, %.lr.ph40.split ]
  %26 = getelementptr inbounds ptr, ptr %25, i64 %17
  %27 = load ptr, ptr %26, align 8
  %28 = sext i32 %24 to i64
  br label %29

29:                                               ; preds = %31, %.thread
  %indvars.iv45 = phi i64 [ %indvars.iv.next46, %31 ], [ %17, %.thread ]
  %indvars.iv.next46 = add nsw i64 %indvars.iv45, 1
  %30 = icmp slt i64 %indvars.iv.next46, %28
  br i1 %30, label %31, label %._crit_edge

31:                                               ; preds = %29
  %32 = getelementptr inbounds ptr, ptr %25, i64 %indvars.iv.next46
  %33 = load ptr, ptr %32, align 8
  %34 = tail call i32 @strcmp(ptr noundef nonnull dereferenceable(1) %33, ptr noundef nonnull dereferenceable(1) %27) #23
  %35 = icmp eq i32 %34, 0
  br i1 %35, label %29, label %.critedge.loopexit, !llvm.loop !16

36:                                               ; preds = %18
  %37 = getelementptr inbounds ptr, ptr %.pre49, i64 %17
  %38 = load ptr, ptr %37, align 8
  %39 = icmp slt i32 %.039, %.pre50
  br i1 %39, label %.lr.ph.preheader, label %.critedge

.lr.ph.preheader:                                 ; preds = %36
  %40 = load ptr, ptr %3, align 8
  %41 = getelementptr inbounds ptr, ptr %40, i64 %17
  %42 = load ptr, ptr %41, align 8
  %43 = tail call i32 @strcmp(ptr noundef nonnull dereferenceable(1) %42, ptr noundef nonnull dereferenceable(1) %38) #23
  %44 = icmp eq i32 %43, 0
  br i1 %44, label %.lr.ph57, label %.critedge.loopexit41

.lr.ph:                                           ; preds = %.lr.ph57
  %45 = load ptr, ptr %3, align 8
  %46 = getelementptr inbounds ptr, ptr %45, i64 %indvars.iv.next
  %47 = load ptr, ptr %46, align 8
  %48 = tail call i32 @strcmp(ptr noundef nonnull dereferenceable(1) %47, ptr noundef nonnull dereferenceable(1) %38) #23
  %49 = icmp eq i32 %48, 0
  br i1 %49, label %.lr.ph57, label %.critedge.loopexit41, !llvm.loop !17

.lr.ph57:                                         ; preds = %.lr.ph.preheader, %.lr.ph
  %indvars.iv56 = phi i64 [ %indvars.iv.next, %.lr.ph ], [ %17, %.lr.ph.preheader ]
  %50 = load ptr, ptr %11, align 8
  %51 = getelementptr inbounds i32, ptr %50, i64 %indvars.iv56
  %52 = load i32, ptr %51, align 4
  %53 = load ptr, ptr %5, align 8
  %54 = getelementptr inbounds i8, ptr %53, i64 8
  %55 = load ptr, ptr %54, align 8
  %56 = load i32, ptr %53, align 8
  %57 = add nsw i32 %56, 1
  store i32 %57, ptr %53, align 8
  %58 = sext i32 %56 to i64
  %59 = getelementptr inbounds i32, ptr %55, i64 %58
  store i32 %52, ptr %59, align 4
  %indvars.iv.next = add nsw i64 %indvars.iv56, 1
  %60 = load i32, ptr %1, align 8
  %61 = sext i32 %60 to i64
  %62 = icmp slt i64 %indvars.iv.next, %61
  br i1 %62, label %.lr.ph, label %.critedge.loopexit41, !llvm.loop !17

.critedge.loopexit41:                             ; preds = %.lr.ph57, %.lr.ph, %.lr.ph.preheader
  %63 = phi i32 [ %.pre50, %.lr.ph.preheader ], [ %60, %.lr.ph ], [ %60, %.lr.ph57 ]
  %.3.ph.in = phi i64 [ %17, %.lr.ph.preheader ], [ %indvars.iv.next, %.lr.ph ], [ %indvars.iv.next, %.lr.ph57 ]
  %.3.ph = trunc i64 %.3.ph.in to i32
  br label %.critedge

.critedge.loopexit:                               ; preds = %31
  %64 = trunc nsw i64 %indvars.iv.next46 to i32
  br label %.critedge

.critedge:                                        ; preds = %.critedge.loopexit, %.critedge.loopexit41, %36
  %65 = phi i32 [ %.pre50, %36 ], [ %63, %.critedge.loopexit41 ], [ %24, %.critedge.loopexit ]
  %.3 = phi i32 [ %.039, %36 ], [ %.3.ph, %.critedge.loopexit41 ], [ %64, %.critedge.loopexit ]
  %66 = icmp slt i32 %.3, %65
  br i1 %66, label %.lr.ph40.splitthread-pre-split, label %._crit_edge, !llvm.loop !18

._crit_edge:                                      ; preds = %.critedge, %29, %.lr.ph40, %4
  ret void
}